; ModuleID = '15/1655.c'
source_filename = "15/1655.c"
target datalayout = "e-m:e-p270:32:32-p271:32:32-p272:64:64-i64:64-f80:128-n8:16:32:64-S128"
target triple = "x86_64-pc-linux-gnu"

@.str = private unnamed_addr constant [3 x i8] c"%d\00", align 1
@sz = common dso_local global [100 x [100 x i32]] zeroinitializer, align 16
@.str.1 = private unnamed_addr constant [4 x i8] c"%d\0A\00", align 1

; Function Attrs: noinline nounwind uwtable
define dso_local i32 @main() #0 {
  %1 = alloca i32, align 4
  %2 = alloca i32, align 4
  %3 = alloca i32, align 4
  %4 = alloca i32, align 4
  %5 = alloca i32, align 4
  %6 = alloca i32, align 4
  %7 = alloca i32, align 4
  %8 = alloca i32, align 4
  %9 = alloca i32, align 4
  %10 = alloca i32, align 4
  %11 = alloca i32, align 4
  %12 = alloca i32, align 4
  %13 = alloca i32, align 4
  store i32 0, i32* %1, align 4
  store i32 0, i32* %12, align 4
  store i32 0, i32* %13, align 4
  %14 = call i32 (i8*, ...) @__isoc99_scanf(i8* getelementptr inbounds ([3 x i8], [3 x i8]* @.str, i64 0, i64 0), i32* %11)
  store i32 0, i32* %2, align 4
  br label %15

15:                                               ; preds = %36, %0
  %16 = load i32, i32* %2, align 4
  %17 = load i32, i32* %11, align 4
  %18 = icmp slt i32 %16, %17
  br i1 %18, label %19, label %39

19:                                               ; preds = %15
  store i32 0, i32* %3, align 4
  br label %20

20:                                               ; preds = %32, %19
  %21 = load i32, i32* %3, align 4
  %22 = load i32, i32* %11, align 4
  %23 = icmp slt i32 %21, %22
  br i1 %23, label %24, label %35

24:                                               ; preds = %20
  %25 = load i32, i32* %2, align 4
  %26 = sext i32 %25 to i64
  %27 = getelementptr inbounds [100 x [100 x i32]], [100 x [100 x i32]]* @sz, i64 0, i64 %26
  %28 = load i32, i32* %3, align 4
  %29 = sext i32 %28 to i64
  %30 = getelementptr inbounds [100 x i32], [100 x i32]* %27, i64 0, i64 %29
  %31 = call i32 (i8*, ...) @__isoc99_scanf(i8* getelementptr inbounds ([3 x i8], [3 x i8]* @.str, i64 0, i64 0), i32* %30)
  br label %32

32:                                               ; preds = %24
  %33 = load i32, i32* %3, align 4
  %34 = add nsw i32 %33, 1
  store i32 %34, i32* %3, align 4
  br label %20

35:                                               ; preds = %20
  br label %36

36:                                               ; preds = %35
  %37 = load i32, i32* %2, align 4
  %38 = add nsw i32 %37, 1
  store i32 %38, i32* %2, align 4
  br label %15

39:                                               ; preds = %15
  store i32 0, i32* %2, align 4
  br label %40

40:                                               ; preds = %70, %39
  %41 = load i32, i32* %2, align 4
  %42 = load i32, i32* %11, align 4
  %43 = icmp slt i32 %41, %42
  br i1 %43, label %44, label %73

44:                                               ; preds = %40
  store i32 0, i32* %3, align 4
  br label %45

45:                                               ; preds = %62, %44
  %46 = load i32, i32* %3, align 4
  %47 = load i32, i32* %11, align 4
  %48 = icmp slt i32 %46, %47
  br i1 %48, label %49, label %65

49:                                               ; preds = %45
  %50 = load i32, i32* %2, align 4
  %51 = sext i32 %50 to i64
  %52 = getelementptr inbounds [100 x [100 x i32]], [100 x [100 x i32]]* @sz, i64 0, i64 %51
  %53 = load i32, i32* %3, align 4
  %54 = sext i32 %53 to i64
  %55 = getelementptr inbounds [100 x i32], [100 x i32]* %52, i64 0, i64 %54
  %56 = load i32, i32* %55, align 4
  %57 = icmp eq i32 %56, 0
  br i1 %57, label %58, label %61

58:                                               ; preds = %49
  %59 = load i32, i32* %2, align 4
  store i32 %59, i32* %4, align 4
  %60 = load i32, i32* %3, align 4
  store i32 %60, i32* %5, align 4
  store i32 1, i32* %12, align 4
  br label %65

61:                                               ; preds = %49
  br label %62

62:                                               ; preds = %61
  %63 = load i32, i32* %3, align 4
  %64 = add nsw i32 %63, 1
  store i32 %64, i32* %3, align 4
  br label %45

65:                                               ; preds = %58, %45
  %66 = load i32, i32* %12, align 4
  %67 = icmp eq i32 %66, 1
  br i1 %67, label %68, label %69

68:                                               ; preds = %65
  br label %73

69:                                               ; preds = %65
  br label %70

70:                                               ; preds = %69
  %71 = load i32, i32* %2, align 4
  %72 = add nsw i32 %71, 1
  store i32 %72, i32* %2, align 4
  br label %40

73:                                               ; preds = %68, %40
  %74 = load i32, i32* %11, align 4
  %75 = sub nsw i32 %74, 1
  store i32 %75, i32* %2, align 4
  br label %76

76:                                               ; preds = %106, %73
  %77 = load i32, i32* %2, align 4
  %78 = icmp sge i32 %77, 0
  br i1 %78, label %79, label %109

79:                                               ; preds = %76
  %80 = load i32, i32* %11, align 4
  %81 = sub nsw i32 %80, 1
  store i32 %81, i32* %3, align 4
  br label %82

82:                                               ; preds = %98, %79
  %83 = load i32, i32* %3, align 4
  %84 = icmp sge i32 %83, 0
  br i1 %84, label %85, label %101

85:                                               ; preds = %82
  %86 = load i32, i32* %2, align 4
  %87 = sext i32 %86 to i64
  %88 = getelementptr inbounds [100 x [100 x i32]], [100 x [100 x i32]]* @sz, i64 0, i64 %87
  %89 = load i32, i32* %3, align 4
  %90 = sext i32 %89 to i64
  %91 = getelementptr inbounds [100 x i32], [100 x i32]* %88, i64 0, i64 %90
  %92 = load i32, i32* %91, align 4
  %93 = icmp eq i32 %92, 0
  br i1 %93, label %94, label %97

94:                                               ; preds = %85
  %95 = load i32, i32* %2, align 4
  store i32 %95, i32* %6, align 4
  %96 = load i32, i32* %3, align 4
  store i32 %96, i32* %7, align 4
  store i32 1, i32* %13, align 4
  br label %101

97:                                               ; preds = %85
  br label %98

98:                                               ; preds = %97
  %99 = load i32, i32* %3, align 4
  %100 = add nsw i32 %99, -1
  store i32 %100, i32* %3, align 4
  br label %82

101:                                              ; preds = %94, %82
  %102 = load i32, i32* %13, align 4
  %103 = icmp eq i32 %102, 1
  br i1 %103, label %104, label %105

104:                                              ; preds = %101
  br label %109

105:                                              ; preds = %101
  br label %106

106:                                              ; preds = %105
  %107 = load i32, i32* %2, align 4
  %108 = add nsw i32 %107, -1
  store i32 %108, i32* %2, align 4
  br label %76

109:                                              ; preds = %104, %76
  %110 = load i32, i32* %6, align 4
  %111 = load i32, i32* %4, align 4
  %112 = sub nsw i32 %110, %111
  %113 = sub nsw i32 %112, 1
  store i32 %113, i32* %8, align 4
  %114 = load i32, i32* %7, align 4
  %115 = load i32, i32* %5, align 4
  %116 = sub nsw i32 %114, %115
  %117 = sub nsw i32 %116, 1
  store i32 %117, i32* %9, align 4
  %118 = load i32, i32* %8, align 4
  %119 = icmp slt i32 %118, 0
  br i1 %119, label %123, label %120

120:                                              ; preds = %109
  %121 = load i32, i32* %9, align 4
  %122 = icmp slt i32 %121, 0
  br i1 %122, label %123, label %124

123:                                              ; preds = %120, %109
  store i32 0, i32* %10, align 4
  br label %128

124:                                              ; preds = %120
  %125 = load i32, i32* %8, align 4
  %126 = load i32, i32* %9, align 4
  %127 = mul nsw i32 %125, %126
  store i32 %127, i32* %10, align 4
  br label %128

128:                                              ; preds = %124, %123
  %129 = load i32, i32* %10, align 4
  %130 = call i32 (i8*, ...) @printf(i8* getelementptr inbounds ([4 x i8], [4 x i8]* @.str.1, i64 0, i64 0), i32 %129)
  ret i32 0
}

declare dso_local i32 @__isoc99_scanf(i8*, ...) #1

declare dso_local i32 @printf(i8*, ...) #1


!llvm.module.flags = !{!0}
!llvm.ident = !{!1}

!0 = !{i32 1, !"wchar_size", i32 4}
!1 = !{!"clang version 10.0.0-4ubuntu1 "}
